target datalayout = "e-m:e-p270:32:32-p271:32:32-p272:64:64-i64:64-i128:128-f80:128-n8:16:32:64-S128"
target triple = "x86_64-pc-linux-gnu"

%struct.RBasic = type { i64, i64 }
%struct.dump_call_arg = type { i64, ptr, i32 }
%struct.RHash = type { %struct.RBasic, i64 }

@s_encoding_short = internal global i64 0, align 8
@s_ruby2_keywords_flag = internal global i64 0, align 8

; Function Attrs: inlinehint nounwind sspstrong willreturn memory(none) uwtable
define internal zeroext i1 @RB_IMMEDIATE_P(i64 noundef %0) #8 {
  %2 = alloca i64, align 8
  store i64 %0, ptr %2, align 8, !tbaa !7
  %3 = load i64, ptr %2, align 8, !tbaa !7
  %4 = and i64 %3, 7
  %5 = icmp ne i64 %4, 0
  ret i1 %5
}

; Function Attrs: inlinehint nounwind sspstrong willreturn memory(none) uwtable
define internal zeroext i1 @RB_FLONUM_P(i64 noundef %0) #8 {
  %2 = alloca i64, align 8
  store i64 %0, ptr %2, align 8, !tbaa !7
  %3 = load i64, ptr %2, align 8, !tbaa !7
  %4 = and i64 %3, 3
  %5 = icmp eq i64 %4, 2
  ret i1 %5
}

; Function Attrs: inlinehint nounwind sspstrong willreturn memory(read) uwtable
define internal zeroext i1 @RB_DYNAMIC_SYM_P(i64 noundef %0) #7 {
  %2 = alloca i1, align 1
  %3 = alloca i64, align 8
  store i64 %0, ptr %3, align 8, !tbaa !7
  %4 = load i64, ptr %3, align 8, !tbaa !7
  %5 = call zeroext i1 @RB_SPECIAL_CONST_P(i64 noundef %4) #26
  br i1 %5, label %6, label %7

6:                                                ; preds = %1
  store i1 false, ptr %2, align 1
  br label %11

7:                                                ; preds = %1
  %8 = load i64, ptr %3, align 8, !tbaa !7
  %9 = call i32 @RB_BUILTIN_TYPE(i64 noundef %8) #27
  %10 = icmp eq i32 %9, 20
  store i1 %10, ptr %2, align 1
  br label %11

11:                                               ; preds = %7, %6
  %12 = load i1, ptr %2, align 1
  ret i1 %12
}

; Function Attrs: inlinehint nounwind sspstrong willreturn memory(none) uwtable
define internal zeroext i1 @RB_STATIC_SYM_P(i64 noundef %0) #8 {
  %2 = alloca i64, align 8
  %3 = alloca i64, align 8
  store i64 %0, ptr %2, align 8, !tbaa !7
  call void @llvm.lifetime.start.p0(i64 8, ptr %3) #23
  store i64 255, ptr %3, align 8, !tbaa !7
  %4 = load i64, ptr %2, align 8, !tbaa !7
  %5 = and i64 %4, 255
  %6 = icmp eq i64 %5, 12
  call void @llvm.lifetime.end.p0(i64 8, ptr %3) #23
  ret i1 %6
}

; Function Attrs: inlinehint nounwind sspstrong willreturn memory(read) uwtable
define internal i32 @rb_type(i64 noundef %0) #7 {
  %2 = alloca i32, align 4
  %3 = alloca i64, align 8
  store i64 %0, ptr %3, align 8, !tbaa !7
  %4 = load i64, ptr %3, align 8, !tbaa !7
  %5 = call zeroext i1 @RB_SPECIAL_CONST_P(i64 noundef %4) #26
  br i1 %5, label %9, label %6

6:                                                ; preds = %1
  %7 = load i64, ptr %3, align 8, !tbaa !7
  %8 = call i32 @RB_BUILTIN_TYPE(i64 noundef %7) #27
  store i32 %8, ptr %2, align 4
  br label %36

9:                                                ; preds = %1
  %10 = load i64, ptr %3, align 8, !tbaa !7
  %11 = icmp eq i64 %10, 0
  br i1 %11, label %12, label %13

12:                                               ; preds = %9
  store i32 19, ptr %2, align 4
  br label %36

13:                                               ; preds = %9
  %14 = load i64, ptr %3, align 8, !tbaa !7
  %15 = icmp eq i64 %14, 4
  br i1 %15, label %16, label %17

16:                                               ; preds = %13
  store i32 17, ptr %2, align 4
  br label %36

17:                                               ; preds = %13
  %18 = load i64, ptr %3, align 8, !tbaa !7
  %19 = icmp eq i64 %18, 20
  br i1 %19, label %20, label %21

20:                                               ; preds = %17
  store i32 18, ptr %2, align 4
  br label %36

21:                                               ; preds = %17
  %22 = load i64, ptr %3, align 8, !tbaa !7
  %23 = icmp eq i64 %22, 36
  br i1 %23, label %24, label %25

24:                                               ; preds = %21
  store i32 22, ptr %2, align 4
  br label %36

25:                                               ; preds = %21
  %26 = load i64, ptr %3, align 8, !tbaa !7
  %27 = call zeroext i1 @RB_FIXNUM_P(i64 noundef %26) #26
  br i1 %27, label %28, label %29

28:                                               ; preds = %25
  store i32 21, ptr %2, align 4
  br label %36

29:                                               ; preds = %25
  %30 = load i64, ptr %3, align 8, !tbaa !7
  %31 = call zeroext i1 @RB_STATIC_SYM_P(i64 noundef %30) #26
  br i1 %31, label %32, label %33

32:                                               ; preds = %29
  store i32 20, ptr %2, align 4
  br label %36

33:                                               ; preds = %29
  %34 = load i64, ptr %3, align 8, !tbaa !7
  %35 = call zeroext i1 @RB_FLONUM_P(i64 noundef %34) #26
  call void @llvm.assume(i1 %35)
  store i32 4, ptr %2, align 4
  br label %36

36:                                               ; preds = %33, %32, %28, %24, %20, %16, %12, %6
  %37 = load i32, ptr %2, align 4
  ret i32 %37
}

; Function Attrs: inlinehint nounwind sspstrong willreturn memory(read) uwtable
define internal i32 @RB_BUILTIN_TYPE(i64 noundef %0) #7 {
  %2 = alloca i64, align 8
  %3 = alloca i64, align 8
  store i64 %0, ptr %2, align 8, !tbaa !7
  call void @llvm.lifetime.start.p0(i64 8, ptr %3) #23
  %4 = load i64, ptr %2, align 8, !tbaa !7
  %5 = inttoptr i64 %4 to ptr
  %6 = getelementptr inbounds nuw %struct.RBasic, ptr %5, i32 0, i32 0
  %7 = load i64, ptr %6, align 8, !tbaa !66
  %8 = and i64 %7, 31
  store i64 %8, ptr %3, align 8, !tbaa !7
  %9 = load i64, ptr %3, align 8, !tbaa !7
  %10 = trunc i64 %9 to i32
  call void @llvm.lifetime.end.p0(i64 8, ptr %3) #23
  ret i32 %10
}

; Function Attrs: inlinehint nounwind sspstrong willreturn memory(none) uwtable
define internal zeroext i1 @RB_SPECIAL_CONST_P(i64 noundef %0) #8 {
  %2 = alloca i64, align 8
  store i64 %0, ptr %2, align 8, !tbaa !7
  %3 = load i64, ptr %2, align 8, !tbaa !7
  %4 = icmp eq i64 %3, 0
  br i1 %4, label %8, label %5

5:                                                ; preds = %1
  %6 = load i64, ptr %2, align 8, !tbaa !7
  %7 = call zeroext i1 @RB_IMMEDIATE_P(i64 noundef %6) #26
  br label %8

8:                                                ; preds = %5, %1
  %9 = phi i1 [ true, %1 ], [ %7, %5 ]
  ret i1 %9
}

; Function Attrs: inlinehint nounwind sspstrong willreturn memory(read) uwtable
define internal zeroext i1 @RB_FLOAT_TYPE_P(i64 noundef %0) #7 {
  %2 = alloca i1, align 1
  %3 = alloca i64, align 8
  store i64 %0, ptr %3, align 8, !tbaa !7
  %4 = load i64, ptr %3, align 8, !tbaa !7
  %5 = call zeroext i1 @RB_FLONUM_P(i64 noundef %4) #26
  br i1 %5, label %6, label %7

6:                                                ; preds = %1
  store i1 true, ptr %2, align 1
  br label %15

7:                                                ; preds = %1
  %8 = load i64, ptr %3, align 8, !tbaa !7
  %9 = call zeroext i1 @RB_SPECIAL_CONST_P(i64 noundef %8) #26
  br i1 %9, label %10, label %11

10:                                               ; preds = %7
  store i1 false, ptr %2, align 1
  br label %15

11:                                               ; preds = %7
  %12 = load i64, ptr %3, align 8, !tbaa !7
  %13 = call i32 @RB_BUILTIN_TYPE(i64 noundef %12) #27
  %14 = icmp eq i32 %13, 4
  store i1 %14, ptr %2, align 1
  br label %15

15:                                               ; preds = %11, %10, %6
  %16 = load i1, ptr %2, align 1
  ret i1 %16
}

; Function Attrs: inlinehint nounwind sspstrong willreturn memory(read) uwtable
define internal zeroext i1 @RB_SYMBOL_P(i64 noundef %0) #7 {
  %2 = alloca i64, align 8
  store i64 %0, ptr %2, align 8, !tbaa !7
  %3 = load i64, ptr %2, align 8, !tbaa !7
  %4 = call zeroext i1 @RB_STATIC_SYM_P(i64 noundef %3) #26
  br i1 %4, label %8, label %5

5:                                                ; preds = %1
  %6 = load i64, ptr %2, align 8, !tbaa !7
  %7 = call zeroext i1 @RB_DYNAMIC_SYM_P(i64 noundef %6) #27
  br label %8

8:                                                ; preds = %5, %1
  %9 = phi i1 [ true, %1 ], [ %7, %5 ]
  ret i1 %9
}

; Function Attrs: inlinehint nounwind sspstrong willreturn memory(none) uwtable
define internal zeroext i1 @RB_FIXNUM_P(i64 noundef %0) #8 {
  %2 = alloca i64, align 8
  store i64 %0, ptr %2, align 8, !tbaa !7
  %3 = load i64, ptr %2, align 8, !tbaa !7
  %4 = and i64 %3, 1
  %5 = icmp ne i64 %4, 0
  ret i1 %5
}

; Function Attrs: inlinehint nounwind sspstrong willreturn memory(none) uwtable
define internal zeroext i1 @RB_UNDEF_P(i64 noundef %0) #8 {
  %2 = alloca i64, align 8
  store i64 %0, ptr %2, align 8, !tbaa !7
  %3 = load i64, ptr %2, align 8, !tbaa !7
  %4 = icmp eq i64 %3, 36
  ret i1 %4
}

; Function Attrs: nounwind sspstrong uwtable
define internal zeroext i1 @rb_hash_ruby2_keywords_p(i64 noundef %0) #0 {
  %2 = alloca i64, align 8
  store i64 %0, ptr %2, align 8, !tbaa !7
  %3 = load i64, ptr %2, align 8, !tbaa !7
  %4 = inttoptr i64 %3 to ptr
  %5 = getelementptr inbounds nuw %struct.RHash, ptr %4, i32 0, i32 0
  %6 = getelementptr inbounds nuw %struct.RBasic, ptr %5, i32 0, i32 0
  %7 = load i64, ptr %6, align 8, !tbaa !121
  %8 = and i64 %7, 8192
  %9 = icmp ne i64 %8, 0
  ret i1 %9
}

; Function Attrs: inlinehint nounwind sspstrong willreturn memory(read) uwtable
define internal zeroext i1 @RB_TYPE_P(i64 noundef %0, i32 noundef %1) #7 {
  %3 = alloca i1, align 1
  %4 = alloca i64, align 8
  %5 = alloca i32, align 4
  store i64 %0, ptr %4, align 8, !tbaa !7
  store i32 %1, ptr %5, align 4, !tbaa !22
  %6 = load i32, ptr %5, align 4, !tbaa !22
  %7 = call i1 @llvm.is.constant.i32(i32 %6)
  br i1 %7, label %8, label %12

8:                                                ; preds = %2
  %9 = load i64, ptr %4, align 8, !tbaa !7
  %10 = load i32, ptr %5, align 4, !tbaa !22
  %11 = call zeroext i1 @rbimpl_RB_TYPE_P_fastpath(i64 noundef %9, i32 noundef %10) #27
  store i1 %11, ptr %3, align 1
  br label %17

12:                                               ; preds = %2
  %13 = load i32, ptr %5, align 4, !tbaa !22
  %14 = load i64, ptr %4, align 8, !tbaa !7
  %15 = call i32 @rb_type(i64 noundef %14) #27
  %16 = icmp eq i32 %13, %15
  store i1 %16, ptr %3, align 1
  br label %17

17:                                               ; preds = %12, %8
  %18 = load i1, ptr %3, align 1
  ret i1 %18
}

; Function Attrs: alwaysinline nounwind sspstrong willreturn memory(read) uwtable
define internal zeroext i1 @rbimpl_RB_TYPE_P_fastpath(i64 noundef %0, i32 noundef %1) #12 {
  %3 = alloca i1, align 1
  %4 = alloca i64, align 8
  %5 = alloca i32, align 4
  store i64 %0, ptr %4, align 8, !tbaa !7
  store i32 %1, ptr %5, align 4, !tbaa !22
  %6 = load i32, ptr %5, align 4, !tbaa !22
  %7 = icmp eq i32 %6, 18
  br i1 %7, label %8, label %11

8:                                                ; preds = %2
  %9 = load i64, ptr %4, align 8, !tbaa !7
  %10 = icmp eq i64 %9, 20
  store i1 %10, ptr %3, align 1
  br label %58

11:                                               ; preds = %2
  %12 = load i32, ptr %5, align 4, !tbaa !22
  %13 = icmp eq i32 %12, 19
  br i1 %13, label %14, label %17

14:                                               ; preds = %11
  %15 = load i64, ptr %4, align 8, !tbaa !7
  %16 = icmp eq i64 %15, 0
  store i1 %16, ptr %3, align 1
  br label %58

17:                                               ; preds = %11
  %18 = load i32, ptr %5, align 4, !tbaa !22
  %19 = icmp eq i32 %18, 17
  br i1 %19, label %20, label %23

20:                                               ; preds = %17
  %21 = load i64, ptr %4, align 8, !tbaa !7
  %22 = icmp eq i64 %21, 4
  store i1 %22, ptr %3, align 1
  br label %58

23:                                               ; preds = %17
  %24 = load i32, ptr %5, align 4, !tbaa !22
  %25 = icmp eq i32 %24, 22
  br i1 %25, label %26, label %29

26:                                               ; preds = %23
  %27 = load i64, ptr %4, align 8, !tbaa !7
  %28 = icmp eq i64 %27, 36
  store i1 %28, ptr %3, align 1
  br label %58

29:                                               ; preds = %23
  %30 = load i32, ptr %5, align 4, !tbaa !22
  %31 = icmp eq i32 %30, 21
  br i1 %31, label %32, label %35

32:                                               ; preds = %29
  %33 = load i64, ptr %4, align 8, !tbaa !7
  %34 = call zeroext i1 @RB_FIXNUM_P(i64 noundef %33) #26
  store i1 %34, ptr %3, align 1
  br label %58

35:                                               ; preds = %29
  %36 = load i32, ptr %5, align 4, !tbaa !22
  %37 = icmp eq i32 %36, 20
  br i1 %37, label %38, label %41

38:                                               ; preds = %35
  %39 = load i64, ptr %4, align 8, !tbaa !7
  %40 = call zeroext i1 @RB_SYMBOL_P(i64 noundef %39) #27
  store i1 %40, ptr %3, align 1
  br label %58

41:                                               ; preds = %35
  %42 = load i32, ptr %5, align 4, !tbaa !22
  %43 = icmp eq i32 %42, 4
  br i1 %43, label %44, label %47

44:                                               ; preds = %41
  %45 = load i64, ptr %4, align 8, !tbaa !7
  %46 = call zeroext i1 @RB_FLOAT_TYPE_P(i64 noundef %45) #27
  store i1 %46, ptr %3, align 1
  br label %58

47:                                               ; preds = %41
  %48 = load i64, ptr %4, align 8, !tbaa !7
  %49 = call zeroext i1 @RB_SPECIAL_CONST_P(i64 noundef %48) #26
  br i1 %49, label %50, label %51

50:                                               ; preds = %47
  store i1 false, ptr %3, align 1
  br label %58

51:                                               ; preds = %47
  %52 = load i32, ptr %5, align 4, !tbaa !22
  %53 = load i64, ptr %4, align 8, !tbaa !7
  %54 = call i32 @RB_BUILTIN_TYPE(i64 noundef %53) #27
  %55 = icmp eq i32 %52, %54
  br i1 %55, label %56, label %57

56:                                               ; preds = %51
  store i1 true, ptr %3, align 1
  br label %58

57:                                               ; preds = %51
  store i1 false, ptr %3, align 1
  br label %58

58:                                               ; preds = %57, %56, %50, %44, %38, %32, %26, %20, %14, %8
  %59 = load i1, ptr %3, align 1
  ret i1 %59
}

; Function Attrs: nounwind sspstrong uwtable
define internal i32 @w_encoding(i64 noundef %0, ptr noundef %1) #0 {
  %3 = alloca i32, align 4
  %4 = alloca i64, align 8
  %5 = alloca ptr, align 8
  %6 = alloca i32, align 4
  %7 = alloca i32, align 4
  store i64 %0, ptr %4, align 8, !tbaa !7
  store ptr %1, ptr %5, align 8, !tbaa !103
  call void @llvm.lifetime.start.p0(i64 4, ptr %6) #23
  %8 = load ptr, ptr %5, align 8, !tbaa !103
  %9 = getelementptr inbounds nuw %struct.dump_call_arg, ptr %8, i32 0, i32 2
  %10 = load i32, ptr %9, align 8, !tbaa !78
  store i32 %10, ptr %6, align 4, !tbaa !22
  %11 = load i32, ptr %6, align 4, !tbaa !22
  %12 = icmp sge i32 %11, 0
  br i1 %12, label %13, label %16

13:                                               ; preds = %2
  %14 = load i32, ptr %6, align 4, !tbaa !22
  %15 = add i32 %14, 1
  store i32 %15, ptr %6, align 4, !tbaa !22
  br label %16

16:                                               ; preds = %13, %2
  %17 = load i64, ptr %4, align 8, !tbaa !7
  switch i64 %17, label %30 [
    i64 0, label %18
    i64 20, label %18
    i64 4, label %29
  ]

18:                                               ; preds = %16, %16
  %19 = load i64, ptr @s_encoding_short, align 8, !tbaa !7
  %20 = call i64 @rb_id2sym(i64 noundef %19)
  %21 = load ptr, ptr %5, align 8, !tbaa !103
  %22 = getelementptr inbounds nuw %struct.dump_call_arg, ptr %21, i32 0, i32 1
  %23 = load ptr, ptr %22, align 8, !tbaa !80
  call void @w_symbol(i64 noundef %20, ptr noundef %23)
  %24 = load i64, ptr %4, align 8, !tbaa !7
  %25 = load ptr, ptr %5, align 8, !tbaa !103
  %26 = getelementptr inbounds nuw %struct.dump_call_arg, ptr %25, i32 0, i32 1
  %27 = load ptr, ptr %26, align 8, !tbaa !80
  %28 = load i32, ptr %6, align 4, !tbaa !22
  call void @w_object(i64 noundef %24, ptr noundef %27, i32 noundef %28)
  store i32 1, ptr %3, align 4
  store i32 1, ptr %7, align 4
  br label %41

29:                                               ; preds = %16
  store i32 0, ptr %3, align 4
  store i32 1, ptr %7, align 4
  br label %41

30:                                               ; preds = %16
  %31 = call i64 @rb_id_encoding()
  %32 = call i64 @rb_id2sym(i64 noundef %31)
  %33 = load ptr, ptr %5, align 8, !tbaa !103
  %34 = getelementptr inbounds nuw %struct.dump_call_arg, ptr %33, i32 0, i32 1
  %35 = load ptr, ptr %34, align 8, !tbaa !80
  call void @w_symbol(i64 noundef %32, ptr noundef %35)
  %36 = load i64, ptr %4, align 8, !tbaa !7
  %37 = load ptr, ptr %5, align 8, !tbaa !103
  %38 = getelementptr inbounds nuw %struct.dump_call_arg, ptr %37, i32 0, i32 1
  %39 = load ptr, ptr %38, align 8, !tbaa !80
  %40 = load i32, ptr %6, align 4, !tbaa !22
  call void @w_object(i64 noundef %36, ptr noundef %39, i32 noundef %40)
  store i32 1, ptr %3, align 4
  store i32 1, ptr %7, align 4
  br label %41

41:                                               ; preds = %30, %29, %18
  call void @llvm.lifetime.end.p0(i64 4, ptr %6) #23
  %42 = load i32, ptr %3, align 4
  ret i32 %42
}

; Function Attrs: nounwind sspstrong uwtable
define internal void @w_ivar(i64 noundef %0, i64 noundef %1, i64 noundef %2, ptr noundef %3) #0 {
  %5 = alloca i64, align 8
  %6 = alloca i64, align 8
  %7 = alloca i64, align 8
  %8 = alloca ptr, align 8
  %9 = alloca i32, align 4
  store i64 %0, ptr %5, align 8, !tbaa !7
  store i64 %1, ptr %6, align 8, !tbaa !7
  store i64 %2, ptr %7, align 8, !tbaa !7
  store ptr %3, ptr %8, align 8, !tbaa !103
  %10 = load i64, ptr %5, align 8, !tbaa !7
  %11 = load ptr, ptr %8, align 8, !tbaa !103
  %12 = getelementptr inbounds nuw %struct.dump_call_arg, ptr %11, i32 0, i32 1
  %13 = load ptr, ptr %12, align 8, !tbaa !80
  call void @w_long(i64 noundef %10, ptr noundef %13)
  %14 = load i64, ptr %7, align 8, !tbaa !7
  %15 = load ptr, ptr %8, align 8, !tbaa !103
  %16 = call i32 @w_encoding(i64 noundef %14, ptr noundef %15)
  %17 = sext i32 %16 to i64
  %18 = load i64, ptr %5, align 8, !tbaa !7
  %19 = sub i64 %18, %17
  store i64 %19, ptr %5, align 8, !tbaa !7
  br i1 true, label %20, label %23

20:                                               ; preds = %4
  %21 = load i64, ptr %6, align 8, !tbaa !7
  %22 = call zeroext i1 @rbimpl_RB_TYPE_P_fastpath(i64 noundef %21, i32 noundef 8) #27
  br i1 %22, label %26, label %50

23:                                               ; preds = %4
  %24 = load i64, ptr %6, align 8, !tbaa !7
  %25 = call zeroext i1 @RB_TYPE_P(i64 noundef %24, i32 noundef 8) #27
  br i1 %25, label %26, label %50

26:                                               ; preds = %23, %20
  %27 = load i64, ptr %6, align 8, !tbaa !7
  %28 = call zeroext i1 @rb_hash_ruby2_keywords_p(i64 noundef %27)
  br i1 %28, label %29, label %50

29:                                               ; preds = %26
  call void @llvm.lifetime.start.p0(i64 4, ptr %9) #23
  %30 = load ptr, ptr %8, align 8, !tbaa !103
  %31 = getelementptr inbounds nuw %struct.dump_call_arg, ptr %30, i32 0, i32 2
  %32 = load i32, ptr %31, align 8, !tbaa !78
  store i32 %32, ptr %9, align 4, !tbaa !22
  %33 = load i32, ptr %9, align 4, !tbaa !22
  %34 = icmp sge i32 %33, 0
  br i1 %34, label %35, label %38

35:                                               ; preds = %29
  %36 = load i32, ptr %9, align 4, !tbaa !22
  %37 = add i32 %36, 1
  store i32 %37, ptr %9, align 4, !tbaa !22
  br label %38

38:                                               ; preds = %35, %29
  %39 = load i64, ptr @s_ruby2_keywords_flag, align 8, !tbaa !7
  %40 = call i64 @rb_id2sym(i64 noundef %39)
  %41 = load ptr, ptr %8, align 8, !tbaa !103
  %42 = getelementptr inbounds nuw %struct.dump_call_arg, ptr %41, i32 0, i32 1
  %43 = load ptr, ptr %42, align 8, !tbaa !80
  call void @w_symbol(i64 noundef %40, ptr noundef %43)
  %44 = load ptr, ptr %8, align 8, !tbaa !103
  %45 = getelementptr inbounds nuw %struct.dump_call_arg, ptr %44, i32 0, i32 1
  %46 = load ptr, ptr %45, align 8, !tbaa !80
  %47 = load i32, ptr %9, align 4, !tbaa !22
  call void @w_object(i64 noundef 20, ptr noundef %46, i32 noundef %47)
  %48 = load i64, ptr %5, align 8, !tbaa !7
  %49 = add i64 %48, -1
  store i64 %49, ptr %5, align 8, !tbaa !7
  call void @llvm.lifetime.end.p0(i64 4, ptr %9) #23
  br label %50

50:                                               ; preds = %38, %26, %23, %20
  %51 = load i64, ptr %6, align 8, !tbaa !7
  %52 = call zeroext i1 @RB_UNDEF_P(i64 noundef %51) #26
  br i1 %52, label %60, label %53

53:                                               ; preds = %50
  %54 = load i64, ptr %5, align 8, !tbaa !7
  %55 = icmp ne i64 %54, 0
  br i1 %55, label %56, label %60

56:                                               ; preds = %53
  %57 = load i64, ptr %6, align 8, !tbaa !7
  %58 = load i64, ptr %5, align 8, !tbaa !7
  %59 = load ptr, ptr %8, align 8, !tbaa !103
  call void @w_ivar_each(i64 noundef %57, i64 noundef %58, ptr noundef %59)
  br label %60

60:                                               ; preds = %56, %53, %50
  ret void
}