; Function Attrs: nounwind sspstrong uwtable
define internal fastcc void @w_ivar(i64 noundef range(i64 1, 0) %0, i64 noundef %1, i64 noundef %2, ptr noundef nonnull %3) unnamed_addr #0 {
  %5 = getelementptr inbounds nuw i8, ptr %3, i64 8
  %6 = load ptr, ptr %5, align 8, !tbaa !69
  tail call fastcc void @w_long(i64 noundef %0, ptr noundef %6)
  %7 = getelementptr inbounds nuw i8, ptr %3, i64 16
  %8 = load i32, ptr %7, align 8, !tbaa !65
  %9 = icmp sgt i32 %8, -1
  %10 = zext i1 %9 to i32
  %spec.select.i = add nuw i32 %8, %10
  switch i64 %2, label %13 [
    i64 0, label %11
    i64 20, label %11
    i64 4, label %w_encoding.exit
  ]

11:                                               ; preds = %4, %4
  %12 = load i64, ptr @s_encoding_short, align 8, !tbaa !7
  br label %.sink.split.i

13:                                               ; preds = %4
  %14 = tail call i64 @rb_id_encoding() #22
  br label %.sink.split.i

.sink.split.i:                                    ; preds = %13, %11
  %.sink17.i = phi i64 [ %14, %13 ], [ %12, %11 ]
  %15 = tail call i64 @rb_id2sym(i64 noundef %.sink17.i) #22
  %16 = load ptr, ptr %5, align 8, !tbaa !69
  tail call fastcc void @w_symbol(i64 noundef %15, ptr noundef %16)
  %17 = load ptr, ptr %5, align 8, !tbaa !69
  tail call fastcc void @w_object(i64 noundef %2, ptr noundef %17, i32 noundef %spec.select.i)
  br label %w_encoding.exit

w_encoding.exit:                                  ; preds = %4, %.sink.split.i
  %.012.i.neg = phi i64 [ 0, %4 ], [ -1, %.sink.split.i ]
  %18 = add i64 %.012.i.neg, %0
  %19 = icmp eq i64 %1, 0
  %20 = and i64 %1, 7
  %21 = icmp ne i64 %20, 0
  %22 = or i1 %19, %21
  br i1 %22, label %rbimpl_RB_TYPE_P_fastpath.exit.thread, label %rbimpl_RB_TYPE_P_fastpath.exit

rbimpl_RB_TYPE_P_fastpath.exit:                   ; preds = %w_encoding.exit
  %23 = inttoptr i64 %1 to ptr
  %24 = load i64, ptr %23, align 8, !tbaa !56
  %25 = and i64 %24, 8223
  %or.cond.not23 = icmp eq i64 %25, 8200
  br i1 %or.cond.not23, label %26, label %rbimpl_RB_TYPE_P_fastpath.exit.thread

26:                                               ; preds = %rbimpl_RB_TYPE_P_fastpath.exit
  %27 = load i32, ptr %7, align 8, !tbaa !65
  %28 = icmp sgt i32 %27, -1
  %29 = zext i1 %28 to i32
  %spec.select = add nuw i32 %27, %29
  %30 = load i64, ptr @s_ruby2_keywords_flag, align 8, !tbaa !7
  %31 = tail call i64 @rb_id2sym(i64 noundef %30) #22
  %32 = load ptr, ptr %5, align 8, !tbaa !69
  tail call fastcc void @w_symbol(i64 noundef %31, ptr noundef %32)
  %33 = load ptr, ptr %5, align 8, !tbaa !69
  tail call fastcc void @w_object(i64 noundef 20, ptr noundef %33, i32 noundef %spec.select)
  %34 = add i64 %18, -1
  br label %rbimpl_RB_TYPE_P_fastpath.exit.thread

rbimpl_RB_TYPE_P_fastpath.exit.thread:            ; preds = %w_encoding.exit, %26, %rbimpl_RB_TYPE_P_fastpath.exit
  %.019 = phi i64 [ %34, %26 ], [ %18, %rbimpl_RB_TYPE_P_fastpath.exit ], [ %18, %w_encoding.exit ]
  %35 = icmp eq i64 %1, 36
  %36 = icmp eq i64 %.019, 0
  %or.cond.not = or i1 %35, %36
  br i1 %or.cond.not, label %38, label %37

37:                                               ; preds = %rbimpl_RB_TYPE_P_fastpath.exit.thread
  tail call fastcc void @w_ivar_each(i64 noundef %1, i64 noundef %.019, ptr noundef %3)
  br label %38

38:                                               ; preds = %37, %rbimpl_RB_TYPE_P_fastpath.exit.thread
  ret void
}